; Function Attrs: null_pointer_is_valid sspstrong uwtable
define internal i32 @dissect_cbor(ptr noundef %0, ptr noundef %1, ptr noundef %2, ptr readnone captures(none) %3) #0 {
  %5 = alloca i32, align 4
  call void @llvm.lifetime.start.p0(i64 4, ptr nonnull %5) #7
  store i32 0, ptr %5, align 4
  %6 = load i32, ptr @proto_cbor, align 4
  %7 = tail call ptr @proto_tree_add_item(ptr noundef %2, i32 noundef %6, ptr noundef %0, i32 noundef 0, i32 noundef -1, i32 noundef 0)
  %8 = load i32, ptr @ett_cbor, align 4
  %9 = tail call ptr @proto_item_add_subtree(ptr noundef %7, i32 noundef %8)
  %10 = call fastcc zeroext i1 @dissect_cbor_main_type(ptr noundef %0, ptr noundef %1, ptr noundef %9, ptr noundef nonnull %5)
  %11 = load i32, ptr %5, align 4
  call void @proto_item_set_len(ptr noundef %7, i32 noundef %11)
  %12 = load i32, ptr %5, align 4
  call void @llvm.lifetime.end.p0(i64 4, ptr nonnull %5) #7
  ret i32 %12
}